; Function Attrs: mustprogress uwtable
define dso_local noundef nonnull align 8 dereferenceable(136) ptr @_ZNK17ExpressionFuncall8get_typeEv(ptr nocapture noundef nonnull readonly align 8 dereferenceable(32) %0) unnamed_addr #3 align 2 {
  %2 = getelementptr inbounds i8, ptr %0, i64 24
  %3 = load ptr, ptr %2, align 8
  %4 = load ptr, ptr %3, align 8
  %5 = getelementptr inbounds i8, ptr %4, i64 48
  %6 = load ptr, ptr %5, align 8
  %7 = tail call noundef nonnull align 8 dereferenceable(136) ptr %6(ptr noundef nonnull align 8 dereferenceable(56) %3)
  ret ptr %7
}